; Function Attrs: mustprogress uwtable
define dso_local noundef nonnull align 8 dereferenceable(348) ptr @_ZNK22cmNinjaTargetGenerator17GetImplFileStreamERKNSt7__cxx1112basic_stringIcSt11char_traitsIcESaIcEEE(ptr nocapture noundef nonnull readonly align 8 dereferenceable(240) %0, ptr noundef nonnull align 8 dereferenceable(32) %1) local_unnamed_addr #3 align 2 {
  %3 = getelementptr inbounds i8, ptr %0, i64 176
  %4 = load ptr, ptr %3, align 8
  %5 = tail call noundef ptr @_ZN21cmLocalNinjaGenerator23GetGlobalNinjaGeneratorEv(ptr noundef nonnull align 8 dereferenceable(952) %4)
  %6 = load ptr, ptr %5, align 8
  %7 = getelementptr inbounds i8, ptr %6, i64 552
  %8 = load ptr, ptr %7, align 8
  %9 = tail call noundef ptr %8(ptr noundef nonnull align 8 dereferenceable(2808) %5, ptr noundef nonnull align 8 dereferenceable(32) %1)
  ret ptr %9
}